target datalayout = "e-m:e-p270:32:32-p271:32:32-p272:64:64-i64:64-i128:128-f80:128-n8:16:32:64-S128"
target triple = "x86_64-pc-linux-gnu"

%class.csr_t = type <{ ptr, ptr, ptr, i64, i32, i8, [3 x i8] }>
%"struct.std::_Rb_tree_header" = type { %"struct.std::_Rb_tree_node_base", i64 }
%"struct.std::_Rb_tree_node_base" = type { i32, ptr, ptr, ptr }
%"struct.std::__detail::_Hash_node_base" = type { ptr }
%"struct.std::__detail::_Prime_rehash_policy" = type { float, i64 }
%struct.state_t = type <{ i64, %class.regfile_t, %class.regfile_t.8, %"class.std::unordered_map.9", i64, i64, i8, i8, i8, i8, [4 x i8], %"class.std::shared_ptr", %"class.std::shared_ptr.29", %"class.std::shared_ptr.32", %"class.std::shared_ptr.32", %"class.std::shared_ptr.32", %"class.std::shared_ptr.32", %"class.std::shared_ptr.32", %"class.std::shared_ptr.35", %"class.std::shared_ptr.35", %"class.std::shared_ptr.38", %"class.std::shared_ptr.41", %"class.std::shared_ptr.32", %"class.std::shared_ptr.32", %"class.std::shared_ptr.32", %"class.std::shared_ptr.32", [29 x %"class.std::shared_ptr.32"], %"class.std::shared_ptr.32", %"class.std::shared_ptr.32", %"class.std::shared_ptr.32", %"class.std::shared_ptr.32", %"class.std::shared_ptr.32", %"class.std::shared_ptr.32", %"class.std::shared_ptr.44", %"class.std::shared_ptr.32", %"class.std::shared_ptr.32", %"class.std::shared_ptr.32", %"class.std::shared_ptr.32", %"class.std::shared_ptr.32", %"class.std::shared_ptr.47", %"class.std::shared_ptr.32", %"class.std::shared_ptr.32", %"class.std::shared_ptr.32", %"class.std::shared_ptr.32", %"class.std::shared_ptr.32", %"class.std::shared_ptr.32", %"class.std::shared_ptr.32", %"class.std::shared_ptr.32", %"class.std::shared_ptr.32", %"class.std::shared_ptr.50", %"class.std::shared_ptr.53", %"class.std::shared_ptr.56", %"class.std::shared_ptr.32", %"class.std::shared_ptr.32", %"class.std::shared_ptr.32", %"class.std::shared_ptr.32", %"class.std::shared_ptr.32", %"class.std::shared_ptr.32", %"class.std::shared_ptr.59", %"class.std::shared_ptr.32", %"class.std::shared_ptr.32", %"class.std::shared_ptr.32", %"class.std::shared_ptr.32", %"class.std::shared_ptr.32", %"class.std::shared_ptr.32", i8, [7 x i8], %"class.std::shared_ptr.62", [64 x %"class.std::shared_ptr.65"], %"class.std::shared_ptr.68", %"class.std::shared_ptr.68", %"class.std::shared_ptr.32", %"class.std::shared_ptr.32", %"class.std::shared_ptr.32", [4 x %"class.std::shared_ptr.32"], [4 x %"class.std::shared_ptr.32"], [4 x %"class.std::shared_ptr.32"], %"class.std::shared_ptr.32", %"class.std::shared_ptr.71", %"class.std::shared_ptr.32", %"class.std::shared_ptr.32", %"class.std::shared_ptr.32", %"class.std::shared_ptr.32", i8, [3 x i8], i32, %"class.std::map", %"class.std::vector", %"class.std::vector", i64, i32, i32, i32, i8, [3 x i8] }>
%class.regfile_t = type { [32 x i64] }
%class.regfile_t.8 = type { [32 x %struct.float128_t] }
%struct.float128_t = type { [2 x i64] }
%"class.std::unordered_map.9" = type { %"class.std::_Hashtable.10" }
%"class.std::_Hashtable.10" = type { ptr, i64, %"struct.std::__detail::_Hash_node_base", i64, %"struct.std::__detail::_Prime_rehash_policy", ptr }
%"class.std::shared_ptr" = type { %"class.std::__shared_ptr" }
%"class.std::__shared_ptr" = type { ptr, %"class.std::__shared_count" }
%"class.std::__shared_count" = type { ptr }
%"class.std::shared_ptr.29" = type { %"class.std::__shared_ptr.30" }
%"class.std::__shared_ptr.30" = type { ptr, %"class.std::__shared_count" }
%"class.std::shared_ptr.35" = type { %"class.std::__shared_ptr.36" }
%"class.std::__shared_ptr.36" = type { ptr, %"class.std::__shared_count" }
%"class.std::shared_ptr.38" = type { %"class.std::__shared_ptr.39" }
%"class.std::__shared_ptr.39" = type { ptr, %"class.std::__shared_count" }
%"class.std::shared_ptr.41" = type { %"class.std::__shared_ptr.42" }
%"class.std::__shared_ptr.42" = type { ptr, %"class.std::__shared_count" }
%"class.std::shared_ptr.44" = type { %"class.std::__shared_ptr.45" }
%"class.std::__shared_ptr.45" = type { ptr, %"class.std::__shared_count" }
%"class.std::shared_ptr.47" = type { %"class.std::__shared_ptr.48" }
%"class.std::__shared_ptr.48" = type { ptr, %"class.std::__shared_count" }
%"class.std::shared_ptr.50" = type { %"class.std::__shared_ptr.51" }
%"class.std::__shared_ptr.51" = type { ptr, %"class.std::__shared_count" }
%"class.std::shared_ptr.53" = type { %"class.std::__shared_ptr.54" }
%"class.std::__shared_ptr.54" = type { ptr, %"class.std::__shared_count" }
%"class.std::shared_ptr.56" = type { %"class.std::__shared_ptr.57" }
%"class.std::__shared_ptr.57" = type { ptr, %"class.std::__shared_count" }
%"class.std::shared_ptr.59" = type { %"class.std::__shared_ptr.60" }
%"class.std::__shared_ptr.60" = type { ptr, %"class.std::__shared_count" }
%"class.std::shared_ptr.62" = type { %"class.std::__shared_ptr.63" }
%"class.std::__shared_ptr.63" = type { ptr, %"class.std::__shared_count" }
%"class.std::shared_ptr.65" = type { %"class.std::__shared_ptr.66" }
%"class.std::__shared_ptr.66" = type { ptr, %"class.std::__shared_count" }
%"class.std::shared_ptr.68" = type { %"class.std::__shared_ptr.69" }
%"class.std::__shared_ptr.69" = type { ptr, %"class.std::__shared_count" }
%"class.std::shared_ptr.71" = type { %"class.std::__shared_ptr.72" }
%"class.std::__shared_ptr.72" = type { ptr, %"class.std::__shared_count" }
%"class.std::shared_ptr.32" = type { %"class.std::__shared_ptr.33" }
%"class.std::__shared_ptr.33" = type { ptr, %"class.std::__shared_count" }
%"class.std::map" = type { %"class.std::_Rb_tree.74" }
%"class.std::_Rb_tree.74" = type { %"struct.std::_Rb_tree<unsigned long, std::pair<const unsigned long, float128_t>, std::_Select1st<std::pair<const unsigned long, float128_t>>, std::less<unsigned long>>::_Rb_tree_impl" }
%"struct.std::_Rb_tree<unsigned long, std::pair<const unsigned long, float128_t>, std::_Select1st<std::pair<const unsigned long, float128_t>>, std::less<unsigned long>>::_Rb_tree_impl" = type { [8 x i8], %"struct.std::_Rb_tree_header" }
%"class.std::vector" = type { %"struct.std::_Vector_base" }
%"struct.std::_Vector_base" = type { %"struct.std::_Vector_base<std::tuple<unsigned long, unsigned long, unsigned char>, std::allocator<std::tuple<unsigned long, unsigned long, unsigned char>>>::_Vector_impl" }
%"struct.std::_Vector_base<std::tuple<unsigned long, unsigned long, unsigned char>, std::allocator<std::tuple<unsigned long, unsigned long, unsigned char>>>::_Vector_impl" = type { %"struct.std::_Vector_base<std::tuple<unsigned long, unsigned long, unsigned char>, std::allocator<std::tuple<unsigned long, unsigned long, unsigned char>>>::_Vector_impl_data" }
%"struct.std::_Vector_base<std::tuple<unsigned long, unsigned long, unsigned char>, std::allocator<std::tuple<unsigned long, unsigned long, unsigned char>>>::_Vector_impl_data" = type { ptr, ptr, ptr }
%class.insn_t = type { i64 }
%class.csr_t.base = type <{ ptr, ptr, ptr, i64, i32, i8 }>
%class.base_status_csr_t = type { %class.csr_t.base, i8, i64, i64 }
%class.mstatus_csr_t = type { %class.base_status_csr_t, i64 }
%class.insn_trap_t = type { %class.trap_t, i8, i64 }
%class.trap_t = type { ptr, i64 }

@_ZTI24trap_illegal_instruction = linkonce_odr constant { ptr, ptr, ptr } { ptr getelementptr inbounds (ptr, ptr @_ZTVN10__cxxabiv120__si_class_type_infoE, i64 2), ptr @_ZTS24trap_illegal_instruction, ptr @_ZTI11insn_trap_t }, comdat, align 8

; Function Attrs: mustprogress nounwind uwtable
define linkonce_odr void @_ZN6trap_tC2Em(ptr noundef nonnull align 8 dereferenceable(16) %0, i64 noundef %1) unnamed_addr #5 comdat align 2 {
  %3 = alloca ptr, align 8
  %4 = alloca i64, align 8
  store ptr %0, ptr %3, align 8, !tbaa !110
  store i64 %1, ptr %4, align 8, !tbaa !10
  %5 = load ptr, ptr %3, align 8
  store ptr getelementptr inbounds inrange(-16, 80) ({ [12 x ptr] }, ptr @_ZTV6trap_t, i32 0, i32 0, i32 2), ptr %5, align 8, !tbaa !12
  %6 = getelementptr inbounds nuw %class.trap_t, ptr %5, i32 0, i32 1
  %7 = load i64, ptr %4, align 8, !tbaa !10
  store i64 %7, ptr %6, align 8, !tbaa !454
  ret void
}

; Function Attrs: mustprogress nounwind uwtable
define linkonce_odr noundef ptr @_ZNKSt12__shared_ptrI13mstatus_csr_tLN9__gnu_cxx12_Lock_policyE2EE3getEv(ptr noundef nonnull align 8 dereferenceable(16) %0) #5 comdat align 2 {
  %2 = alloca ptr, align 8
  store ptr %0, ptr %2, align 8, !tbaa !521
  %3 = load ptr, ptr %2, align 8
  %4 = getelementptr inbounds nuw %"class.std::__shared_ptr.30", ptr %3, i32 0, i32 0
  %5 = load ptr, ptr %4, align 8, !tbaa !523
  ret ptr %5
}

; Function Attrs: mustprogress uwtable
define linkonce_odr void @_ZN11insn_trap_tC2Embm(ptr noundef nonnull align 8 dereferenceable(32) %0, i64 noundef %1, i1 noundef zeroext %2, i64 noundef %3) unnamed_addr #4 comdat align 2 {
  %5 = alloca ptr, align 8
  %6 = alloca i64, align 8
  %7 = alloca i8, align 1
  %8 = alloca i64, align 8
  store ptr %0, ptr %5, align 8, !tbaa !448
  store i64 %1, ptr %6, align 8, !tbaa !10
  %9 = zext i1 %2 to i8
  store i8 %9, ptr %7, align 1, !tbaa !23
  store i64 %3, ptr %8, align 8, !tbaa !10
  %10 = load ptr, ptr %5, align 8
  %11 = load i64, ptr %6, align 8, !tbaa !10
  call void @_ZN6trap_tC2Em(ptr noundef nonnull align 8 dereferenceable(16) %10, i64 noundef %11)
  store ptr getelementptr inbounds inrange(-16, 80) ({ [12 x ptr] }, ptr @_ZTV11insn_trap_t, i32 0, i32 0, i32 2), ptr %10, align 8, !tbaa !12
  %12 = getelementptr inbounds nuw %class.insn_trap_t, ptr %10, i32 0, i32 1
  %13 = load i8, ptr %7, align 1, !tbaa !23, !range !98, !noundef !99
  %14 = trunc i8 %13 to i1
  %15 = zext i1 %14 to i8
  store i8 %15, ptr %12, align 8, !tbaa !450
  %16 = getelementptr inbounds nuw %class.insn_trap_t, ptr %10, i32 0, i32 2
  %17 = load i64, ptr %8, align 8, !tbaa !10
  store i64 %17, ptr %16, align 8, !tbaa !453
  ret void
}

; Function Attrs: mustprogress nounwind uwtable
define linkonce_odr noundef ptr @_ZNKSt19__shared_ptr_accessI13mstatus_csr_tLN9__gnu_cxx12_Lock_policyE2ELb0ELb0EE6_M_getEv(ptr noundef nonnull align 1 dereferenceable(1) %0) #5 comdat align 2 {
  %2 = alloca ptr, align 8
  store ptr %0, ptr %2, align 8, !tbaa !226
  %3 = load ptr, ptr %2, align 8
  %4 = call noundef ptr @_ZNKSt12__shared_ptrI13mstatus_csr_tLN9__gnu_cxx12_Lock_policyE2EE3getEv(ptr noundef nonnull align 8 dereferenceable(16) %3) #3
  ret ptr %4
}

; Function Attrs: mustprogress uwtable
define linkonce_odr void @_ZN24trap_illegal_instructionC2Em(ptr noundef nonnull align 8 dereferenceable(32) %0, i64 noundef %1) unnamed_addr #4 comdat align 2 {
  %3 = alloca ptr, align 8
  %4 = alloca i64, align 8
  store ptr %0, ptr %3, align 8, !tbaa !106
  store i64 %1, ptr %4, align 8, !tbaa !10
  %5 = load ptr, ptr %3, align 8
  %6 = load i64, ptr %4, align 8, !tbaa !10
  call void @_ZN11insn_trap_tC2Embm(ptr noundef nonnull align 8 dereferenceable(32) %5, i64 noundef 2, i1 noundef zeroext false, i64 noundef %6)
  store ptr getelementptr inbounds inrange(-16, 80) ({ [12 x ptr] }, ptr @_ZTV24trap_illegal_instruction, i32 0, i32 0, i32 2), ptr %5, align 8, !tbaa !12
  ret void
}

; Function Attrs: mustprogress nounwind uwtable
define linkonce_odr noundef i64 @_ZN6insn_t4bitsEv(ptr noundef nonnull align 8 dereferenceable(8) %0) #5 comdat align 2 {
  %2 = alloca ptr, align 8
  store ptr %0, ptr %2, align 8, !tbaa !102
  %3 = load ptr, ptr %2, align 8
  %4 = getelementptr inbounds nuw %class.insn_t, ptr %3, i32 0, i32 0
  %5 = load i64, ptr %4, align 8, !tbaa !104
  ret i64 %5
}

; Function Attrs: mustprogress nounwind uwtable
define linkonce_odr noundef i64 @_ZNK13mstatus_csr_t4readEv(ptr noundef nonnull align 8 dereferenceable(64) %0) unnamed_addr #5 comdat align 2 {
  %2 = alloca ptr, align 8
  store ptr %0, ptr %2, align 8, !tbaa !228
  %3 = load ptr, ptr %2, align 8
  %4 = getelementptr inbounds nuw %class.mstatus_csr_t, ptr %3, i32 0, i32 1
  %5 = load i64, ptr %4, align 8, !tbaa !229
  ret i64 %5
}

; Function Attrs: mustprogress nounwind uwtable
define linkonce_odr noundef ptr @_ZNKSt19__shared_ptr_accessI13mstatus_csr_tLN9__gnu_cxx12_Lock_policyE2ELb0ELb0EEptEv(ptr noundef nonnull align 1 dereferenceable(1) %0) #5 comdat align 2 {
  %2 = alloca ptr, align 8
  store ptr %0, ptr %2, align 8, !tbaa !226
  %3 = load ptr, ptr %2, align 8
  %4 = call noundef ptr @_ZNKSt19__shared_ptr_accessI13mstatus_csr_tLN9__gnu_cxx12_Lock_policyE2ELb0ELb0EE6_M_getEv(ptr noundef nonnull align 1 dereferenceable(1) %3) #3
  ret ptr %4
}

; Function Attrs: mustprogress uwtable
define void @_ZNK10satp_csr_t18verify_permissionsE6insn_tb(ptr noundef nonnull align 8 dereferenceable(48) %0, i64 %1, i1 noundef zeroext %2) unnamed_addr #4 align 2 personality ptr @__gxx_personality_v0 {
  %4 = alloca %class.insn_t, align 8
  %5 = alloca ptr, align 8
  %6 = alloca i8, align 1
  %7 = alloca %class.insn_t, align 8
  %8 = alloca ptr, align 8
  %9 = alloca i1, align 1
  %10 = alloca ptr, align 8
  %11 = alloca i32, align 4
  %12 = getelementptr inbounds nuw %class.insn_t, ptr %4, i32 0, i32 0
  store i64 %1, ptr %12, align 8
  store ptr %0, ptr %5, align 8, !tbaa !308
  %13 = zext i1 %2 to i8
  store i8 %13, ptr %6, align 1, !tbaa !23
  %14 = load ptr, ptr %5, align 8
  call void @llvm.memcpy.p0.p0.i64(ptr align 8 %7, ptr align 8 %4, i64 8, i1 false), !tbaa.struct !176
  %15 = load i8, ptr %6, align 1, !tbaa !23, !range !98, !noundef !99
  %16 = trunc i8 %15 to i1
  %17 = getelementptr inbounds nuw %class.insn_t, ptr %7, i32 0, i32 0
  %18 = load i64, ptr %17, align 8
  call void @_ZNK5csr_t18verify_permissionsE6insn_tb(ptr noundef nonnull align 8 dereferenceable(37) %14, i64 %18, i1 noundef zeroext %16)
  %19 = getelementptr inbounds nuw %class.csr_t, ptr %14, i32 0, i32 2
  %20 = load ptr, ptr %19, align 8, !tbaa !19
  %21 = getelementptr inbounds nuw %struct.state_t, ptr %20, i32 0, i32 12
  %22 = call noundef ptr @_ZNKSt19__shared_ptr_accessI13mstatus_csr_tLN9__gnu_cxx12_Lock_policyE2ELb0ELb0EEptEv(ptr noundef nonnull align 1 dereferenceable(1) %21) #3
  %23 = call noundef i64 @_ZNK13mstatus_csr_t4readEv(ptr noundef nonnull align 8 dereferenceable(64) %22) #3
  %24 = and i64 %23, 1048576
  %25 = udiv i64 %24, 1048576
  %26 = icmp ne i64 %25, 0
  br i1 %26, label %27, label %53

27:                                               ; preds = %3
  %28 = getelementptr inbounds nuw %class.csr_t, ptr %14, i32 0, i32 2
  %29 = load ptr, ptr %28, align 8, !tbaa !19
  %30 = getelementptr inbounds nuw %struct.state_t, ptr %29, i32 0, i32 4
  %31 = load i64, ptr %30, align 8, !tbaa !24
  %32 = icmp eq i64 %31, 3
  %33 = xor i1 %32, true
  %34 = zext i1 %33 to i64
  %35 = call i64 @llvm.expect.i64(i64 %34, i64 0)
  %36 = icmp ne i64 %35, 0
  store i1 false, ptr %9, align 1
  br i1 %36, label %37, label %43

37:                                               ; preds = %27
  %38 = call ptr @__cxa_allocate_exception(i64 32) #3
  store ptr %38, ptr %8, align 8
  store i1 true, ptr %9, align 1
  %39 = invoke noundef i64 @_ZN6insn_t4bitsEv(ptr noundef nonnull align 8 dereferenceable(8) %4)
          to label %40 unwind label %45

40:                                               ; preds = %37
  invoke void @_ZN24trap_illegal_instructionC2Em(ptr noundef nonnull align 8 dereferenceable(32) %38, i64 noundef %39)
          to label %41 unwind label %45

41:                                               ; preds = %40
  call void @__cxa_throw(ptr %38, ptr @_ZTI24trap_illegal_instruction, ptr @_ZN6trap_tD2Ev) #22
  unreachable

42:                                               ; No predecessors!
  br label %44

43:                                               ; preds = %27
  br label %44

44:                                               ; preds = %43, %42
  br label %53

45:                                               ; preds = %40, %37
  %46 = landingpad { ptr, i32 }
          cleanup
  %47 = extractvalue { ptr, i32 } %46, 0
  store ptr %47, ptr %10, align 8
  %48 = extractvalue { ptr, i32 } %46, 1
  store i32 %48, ptr %11, align 4
  %49 = load i1, ptr %9, align 1
  br i1 %49, label %50, label %52

50:                                               ; preds = %45
  %51 = load ptr, ptr %8, align 8
  call void @__cxa_free_exception(ptr %51) #3
  br label %52

52:                                               ; preds = %50, %45
  br label %54

53:                                               ; preds = %44, %3
  ret void

54:                                               ; preds = %52
  %55 = load ptr, ptr %10, align 8
  %56 = load i32, ptr %11, align 4
  %57 = insertvalue { ptr, i32 } poison, ptr %55, 0
  %58 = insertvalue { ptr, i32 } %57, i32 %56, 1
  resume { ptr, i32 } %58
}