; Function Attrs: mustprogress uwtable
define void @_ZNK10satp_csr_t18verify_permissionsE6insn_tb(ptr noundef nonnull readonly align 8 captures(none) dereferenceable(48) %0, i64 %1, i1 noundef zeroext %2) unnamed_addr #4 align 2 personality ptr @__gxx_personality_v0 {
  tail call void @_ZNK5csr_t18verify_permissionsE6insn_tb(ptr noundef nonnull align 8 dereferenceable(37) %0, i64 %1, i1 noundef zeroext %2)
  %4 = getelementptr inbounds nuw i8, ptr %0, i64 16
  %5 = load ptr, ptr %4, align 8, !tbaa !15
  %6 = getelementptr inbounds nuw i8, ptr %5, i64 872
  %7 = load ptr, ptr %6, align 8, !tbaa !193
  %8 = getelementptr inbounds nuw i8, ptr %7, i64 56
  %9 = load i64, ptr %8, align 8, !tbaa !194
  %10 = and i64 %9, 1048576
  %.not = icmp eq i64 %10, 0
  br i1 %.not, label %19, label %11

11:                                               ; preds = %3
  %12 = getelementptr inbounds nuw i8, ptr %5, i64 832
  %13 = load i64, ptr %12, align 8, !tbaa !19
  %.not5 = icmp eq i64 %13, 3
  br i1 %.not5, label %19, label %14, !prof !204

14:                                               ; preds = %11
  %15 = tail call ptr @__cxa_allocate_exception(i64 32) #30
  %16 = getelementptr inbounds nuw i8, ptr %15, i64 8
  store i64 2, ptr %16, align 8, !tbaa !97
  %17 = getelementptr inbounds nuw i8, ptr %15, i64 16
  store i8 0, ptr %17, align 8, !tbaa !99
  %18 = getelementptr inbounds nuw i8, ptr %15, i64 24
  store i64 %1, ptr %18, align 8, !tbaa !101
  store ptr getelementptr inbounds nuw inrange(-16, 80) (i8, ptr @_ZTV24trap_illegal_instruction, i64 16), ptr %15, align 8, !tbaa !3
  tail call void @__cxa_throw(ptr nonnull %15, ptr nonnull @_ZTI24trap_illegal_instruction, ptr nonnull @_ZN6trap_tD2Ev) #31
  unreachable

19:                                               ; preds = %11, %3
  ret void
}